target datalayout = "e-m:e-p270:32:32-p271:32:32-p272:64:64-i64:64-i128:128-f80:128-n8:16:32:64-S128"
target triple = "x86_64-pc-linux-gnu"

@.str.6 = private unnamed_addr constant [25 x i8] c"%s/tinympc/tiny_data.hpp\00", align 1
@.str.7 = private unnamed_addr constant [3 x i8] c"w+\00", align 1
@stderr = external global ptr, align 8
@.str.8 = private unnamed_addr constant [28 x i8] c"Failed to open file %s: %s\0A\00", align 1
@.str.9 = private unnamed_addr constant [4 x i8] c"/*\0A\00", align 1
@.str.10 = private unnamed_addr constant [48 x i8] c" * This file was autogenerated by TinyMPC on %s\00", align 1
@.str.11 = private unnamed_addr constant [6 x i8] c" */\0A\0A\00", align 1
@.str.12 = private unnamed_addr constant [15 x i8] c"#pragma once\0A\0A\00", align 1
@.str.13 = private unnamed_addr constant [23 x i8] c"#include \22types.hpp\22\0A\0A\00", align 1
@.str.14 = private unnamed_addr constant [20 x i8] c"#ifdef __cplusplus\0A\00", align 1
@.str.15 = private unnamed_addr constant [14 x i8] c"extern \22C\22 {\0A\00", align 1
@.str.16 = private unnamed_addr constant [9 x i8] c"#endif\0A\0A\00", align 1
@.str.17 = private unnamed_addr constant [33 x i8] c"extern TinySolver tiny_solver;\0A\0A\00", align 1
@.str.18 = private unnamed_addr constant [3 x i8] c"}\0A\00", align 1
@.str.19 = private unnamed_addr constant [8 x i8] c"#endif\0A\00", align 1
@.str.20 = private unnamed_addr constant [29 x i8] c"Data header generated in %s\0A\00", align 1

; Function Attrs: mustprogress uwtable
define i32 @codegen_data_header(ptr noundef %0, i32 noundef %1) #6 {
  %3 = alloca ptr, align 8
  %4 = alloca i32, align 4
  %5 = alloca [2048 x i8], align 16
  %6 = alloca ptr, align 8
  %7 = alloca i64, align 8
  store ptr %0, ptr %3, align 8, !tbaa !15
  store i32 %1, ptr %4, align 4, !tbaa !17
  call void @llvm.lifetime.start.p0(i64 2048, ptr %5) #3
  call void @llvm.lifetime.start.p0(i64 8, ptr %6) #3
  %8 = getelementptr inbounds [2048 x i8], ptr %5, i64 0, i64 0
  %9 = load ptr, ptr %3, align 8, !tbaa !15
  %10 = call i32 (ptr, ptr, ...) @sprintf(ptr noundef %8, ptr noundef @.str.6, ptr noundef %9) #3
  %11 = getelementptr inbounds [2048 x i8], ptr %5, i64 0, i64 0
  %12 = call noalias ptr @fopen(ptr noundef %11, ptr noundef @.str.7)
  store ptr %12, ptr %6, align 8, !tbaa !23
  %13 = load ptr, ptr %6, align 8, !tbaa !23
  %14 = icmp eq ptr %13, null
  br i1 %14, label %15, label %22

15:                                               ; preds = %2
  %16 = load ptr, ptr @stderr, align 8, !tbaa !23
  %17 = getelementptr inbounds [2048 x i8], ptr %5, i64 0, i64 0
  %18 = call ptr @__errno_location() #19
  %19 = load i32, ptr %18, align 4, !tbaa !17
  %20 = call ptr @strerror(i32 noundef %19) #3
  %21 = call i32 (ptr, ptr, ...) @fprintf(ptr noundef %16, ptr noundef @.str.8, ptr noundef %17, ptr noundef %20) #3
  call void @exit(i32 noundef 1) #20
  unreachable

22:                                               ; preds = %2
  call void @llvm.lifetime.start.p0(i64 8, ptr %7) #3
  %23 = call i64 @time(ptr noundef %7) #3
  %24 = load ptr, ptr %6, align 8, !tbaa !23
  %25 = call i32 (ptr, ptr, ...) @fprintf(ptr noundef %24, ptr noundef @.str.9) #3
  %26 = load ptr, ptr %6, align 8, !tbaa !23
  %27 = call ptr @ctime(ptr noundef %7) #3
  %28 = call i32 (ptr, ptr, ...) @fprintf(ptr noundef %26, ptr noundef @.str.10, ptr noundef %27) #3
  %29 = load ptr, ptr %6, align 8, !tbaa !23
  %30 = call i32 (ptr, ptr, ...) @fprintf(ptr noundef %29, ptr noundef @.str.11) #3
  %31 = load ptr, ptr %6, align 8, !tbaa !23
  %32 = call i32 (ptr, ptr, ...) @fprintf(ptr noundef %31, ptr noundef @.str.12) #3
  %33 = load ptr, ptr %6, align 8, !tbaa !23
  %34 = call i32 (ptr, ptr, ...) @fprintf(ptr noundef %33, ptr noundef @.str.13) #3
  %35 = load ptr, ptr %6, align 8, !tbaa !23
  %36 = call i32 (ptr, ptr, ...) @fprintf(ptr noundef %35, ptr noundef @.str.14) #3
  %37 = load ptr, ptr %6, align 8, !tbaa !23
  %38 = call i32 (ptr, ptr, ...) @fprintf(ptr noundef %37, ptr noundef @.str.15) #3
  %39 = load ptr, ptr %6, align 8, !tbaa !23
  %40 = call i32 (ptr, ptr, ...) @fprintf(ptr noundef %39, ptr noundef @.str.16) #3
  %41 = load ptr, ptr %6, align 8, !tbaa !23
  %42 = call i32 (ptr, ptr, ...) @fprintf(ptr noundef %41, ptr noundef @.str.17) #3
  %43 = load ptr, ptr %6, align 8, !tbaa !23
  %44 = call i32 (ptr, ptr, ...) @fprintf(ptr noundef %43, ptr noundef @.str.14) #3
  %45 = load ptr, ptr %6, align 8, !tbaa !23
  %46 = call i32 (ptr, ptr, ...) @fprintf(ptr noundef %45, ptr noundef @.str.18) #3
  %47 = load ptr, ptr %6, align 8, !tbaa !23
  %48 = call i32 (ptr, ptr, ...) @fprintf(ptr noundef %47, ptr noundef @.str.19) #3
  %49 = load ptr, ptr %6, align 8, !tbaa !23
  %50 = call i32 @fclose(ptr noundef %49)
  %51 = load i32, ptr %4, align 4, !tbaa !17
  %52 = icmp ne i32 %51, 0
  br i1 %52, label %53, label %56

53:                                               ; preds = %22
  %54 = getelementptr inbounds [2048 x i8], ptr %5, i64 0, i64 0
  %55 = call i32 (ptr, ...) @printf(ptr noundef @.str.20, ptr noundef %54)
  br label %56

56:                                               ; preds = %53, %22
  call void @llvm.lifetime.end.p0(i64 8, ptr %7) #3
  call void @llvm.lifetime.end.p0(i64 8, ptr %6) #3
  call void @llvm.lifetime.end.p0(i64 2048, ptr %5) #3
  ret i32 0
}