; Function Attrs: mustprogress nounwind uwtable
define noundef i32 @codegen_data_header(ptr noundef %0, i32 noundef %1) local_unnamed_addr #5 {
  %3 = alloca [2048 x i8], align 16
  %4 = alloca i64, align 8
  call void @llvm.lifetime.start.p0(i64 2048, ptr nonnull %3) #21
  %5 = call i32 (ptr, ptr, ...) @sprintf(ptr noundef nonnull dereferenceable(1) %3, ptr noundef nonnull dereferenceable(1) @.str.6, ptr noundef %0) #21
  %6 = call noalias ptr @fopen(ptr noundef nonnull %3, ptr noundef nonnull @.str.7)
  %7 = icmp eq ptr %6, null
  br i1 %7, label %8, label %14

8:                                                ; preds = %2
  %9 = load ptr, ptr @stderr, align 8, !tbaa !33
  %10 = tail call ptr @__errno_location() #22
  %11 = load i32, ptr %10, align 4, !tbaa !35
  %12 = tail call ptr @strerror(i32 noundef %11) #21
  %13 = call i32 (ptr, ptr, ...) @fprintf(ptr noundef %9, ptr noundef nonnull @.str.8, ptr noundef nonnull %3, ptr noundef %12) #23
  call void @exit(i32 noundef 1) #24
  unreachable

14:                                               ; preds = %2
  call void @llvm.lifetime.start.p0(i64 8, ptr nonnull %4) #21
  %15 = call i64 @time(ptr noundef nonnull %4) #21
  %16 = call i64 @fwrite(ptr nonnull @.str.9, i64 3, i64 1, ptr nonnull %6)
  %17 = call ptr @ctime(ptr noundef nonnull %4) #21
  %18 = call i32 (ptr, ptr, ...) @fprintf(ptr noundef nonnull %6, ptr noundef nonnull @.str.10, ptr noundef %17) #21
  %19 = call i64 @fwrite(ptr nonnull @.str.11, i64 5, i64 1, ptr nonnull %6)
  %20 = call i64 @fwrite(ptr nonnull @.str.12, i64 14, i64 1, ptr nonnull %6)
  %21 = call i64 @fwrite(ptr nonnull @.str.13, i64 22, i64 1, ptr nonnull %6)
  %22 = call i64 @fwrite(ptr nonnull @.str.14, i64 19, i64 1, ptr nonnull %6)
  %23 = call i64 @fwrite(ptr nonnull @.str.15, i64 13, i64 1, ptr nonnull %6)
  %24 = call i64 @fwrite(ptr nonnull @.str.16, i64 8, i64 1, ptr nonnull %6)
  %25 = call i64 @fwrite(ptr nonnull @.str.17, i64 32, i64 1, ptr nonnull %6)
  %26 = call i64 @fwrite(ptr nonnull @.str.14, i64 19, i64 1, ptr nonnull %6)
  %27 = call i64 @fwrite(ptr nonnull @.str.18, i64 2, i64 1, ptr nonnull %6)
  %28 = call i64 @fwrite(ptr nonnull @.str.19, i64 7, i64 1, ptr nonnull %6)
  %29 = call i32 @fclose(ptr noundef nonnull %6)
  %.not = icmp eq i32 %1, 0
  br i1 %.not, label %32, label %30

30:                                               ; preds = %14
  %31 = call i32 (ptr, ...) @printf(ptr noundef nonnull dereferenceable(1) @.str.20, ptr noundef nonnull %3)
  br label %32

32:                                               ; preds = %30, %14
  call void @llvm.lifetime.end.p0(i64 8, ptr nonnull %4) #21
  call void @llvm.lifetime.end.p0(i64 2048, ptr nonnull %3) #21
  ret i32 0
}